target datalayout = "e-m:e-p270:32:32-p271:32:32-p272:64:64-i64:64-i128:128-f80:128-n8:16:32:64-S128"
target triple = "x86_64-pc-linux-gnu"

%struct._zend_phpdbg_globals = type { [11 x %struct._zend_array], %struct._zend_array, %struct._zend_array, ptr, ptr, %struct.phpdbg_frame_t, i32, ptr, %struct.phpdbg_lexer_data, ptr, %struct.sigaction, i32, i64, %struct.phpdbg_btree, %struct.phpdbg_btree, %struct._zend_array, %struct._zend_array, %struct._zend_array, %struct._zend_array, ptr, ptr, i8, ptr, ptr, ptr, i64, ptr, %struct._zval_struct, i32, i32, i8, i8, ptr, ptr, ptr, %struct._zend_array, ptr, ptr, ptr, [3 x %struct.anon.8], ptr, %struct.anon.9, i64, [2 x ptr], [3 x ptr], ptr, i8, ptr, ptr, [500 x i8], i32, %struct.phpdbg_signal_safe_mem, ptr, i64, ptr, i64 }
%struct.phpdbg_frame_t = type { i32, ptr, ptr }
%struct.phpdbg_lexer_data = type { i32, ptr, ptr, ptr, ptr, i32 }
%struct.sigaction = type { %union.anon.2, %struct.__sigset_t, i32, ptr }
%union.anon.2 = type { ptr }
%struct.__sigset_t = type { [16 x i64] }
%struct.phpdbg_btree = type { i64, i64, i8, ptr }
%struct._zval_struct = type { %union._zend_value, %union.anon.4, %union.anon.7 }
%union._zend_value = type { i64 }
%union.anon.4 = type { i32 }
%union.anon.7 = type { i32 }
%struct._zend_array = type { %struct._zend_refcounted_h, %union.anon.0, i32, %union.anon.1, i32, i32, i32, i32, i64, ptr }
%struct._zend_refcounted_h = type { i32, %union.anon }
%union.anon = type { i32 }
%union.anon.0 = type { i32 }
%union.anon.1 = type { ptr }
%struct.anon.8 = type { i32 }
%struct.anon.9 = type { i8, i32, i32, ptr, i32 }
%struct.phpdbg_signal_safe_mem = type { ptr, i8, ptr, ptr }
%struct._zend_executor_globals = type { %struct._zval_struct, %struct._zval_struct, [32 x ptr], ptr, ptr, %struct._zend_array, %struct._zend_array, ptr, i32, i32, ptr, ptr, ptr, ptr, ptr, ptr, i64, ptr, ptr, i32, i32, i64, i32, i32, i32, i8, i8, %struct.zend_atomic_bool_s, %struct.zend_atomic_bool_s, ptr, i64, ptr, ptr, %struct._zend_array, %struct._zend_array, i32, i8, %struct._zval_struct, %struct._zval_struct, %struct._zend_stack, %struct._zend_stack, %struct._zend_stack, ptr, i32, i32, i64, ptr, ptr, ptr, %struct._zend_objects_store, ptr, ptr, ptr, [3 x %struct._zend_op], ptr, i8, i8, i64, i32, i32, ptr, [16 x %struct._HashTableIterator], ptr, %union._zend_function, %struct._zend_op, %struct._zend_array, i64, %struct.zend_get_gc_buffer, ptr, ptr, ptr, i64, i8, i32, ptr, ptr, i64, %struct._zend_call_stack, i64, i64, [6 x ptr] }
%struct.zend_atomic_bool_s = type { i8 }
%struct._zend_stack = type { i32, i32, i32, ptr }
%struct._zend_objects_store = type { ptr, i32, i32, i32 }
%struct._HashTableIterator = type { ptr, i32, i32 }
%union._zend_function = type { %struct._zend_op_array }
%struct._zend_op_array = type { i8, [3 x i8], i32, ptr, ptr, ptr, i32, i32, ptr, ptr, ptr, ptr, i32, i32, i32, i32, ptr, ptr, ptr, ptr, ptr, i32, i32, ptr, ptr, ptr, i32, i32, i32, i32, ptr, ptr, [6 x ptr] }
%struct._zend_op = type { ptr, %union._znode_op, %union._znode_op, %union._znode_op, i32, i32, i8, i8, i8, i8 }
%union._znode_op = type { i32 }
%struct.zend_get_gc_buffer = type { ptr, ptr, ptr }
%struct._zend_call_stack = type { ptr, i64 }
%struct.phpdbg_file_source = type { ptr, i64, %struct._zend_op_array, i32, [1 x i32] }

@phpdbg_globals = external global %struct._zend_phpdbg_globals, align 8
@executor_globals = external global %struct._zend_executor_globals, align 8
@zend_compile_string = external global ptr, align 8
@.str.79 = private unnamed_addr constant [20 x i8] c"Standard input code\00", align 1
@.str.80 = private unnamed_addr constant [24 x i8] c"Standard input code%c%p\00", align 1
@.str.81 = private unnamed_addr constant [38 x i8] c"Successful compilation of stdin input\00", align 1

; Function Attrs: nounwind uwtable
define hidden i32 @phpdbg_compile_stdin(ptr noundef %0) #0 {
  %2 = alloca ptr, align 8
  %3 = alloca ptr, align 8
  %4 = alloca i32, align 4
  %5 = alloca i32, align 4
  %6 = alloca i32, align 4
  %7 = alloca i32, align 4
  %8 = alloca ptr, align 8
  %9 = alloca ptr, align 8
  %10 = alloca i64, align 8
  %11 = alloca ptr, align 8
  %12 = alloca %struct._zval_struct, align 8
  %13 = alloca ptr, align 8
  %14 = alloca ptr, align 8
  %15 = alloca ptr, align 8
  %16 = alloca ptr, align 8
  %17 = alloca ptr, align 8
  %18 = alloca ptr, align 8
  %19 = alloca ptr, align 8
  %20 = alloca i32, align 4
  %21 = alloca ptr, align 8
  %22 = alloca i32, align 4
  %23 = alloca ptr, align 8
  %24 = alloca ptr, align 8
  %25 = alloca ptr, align 8
  store ptr %0, ptr %21, align 8
  %26 = load ptr, ptr @zend_compile_string, align 8
  %27 = load ptr, ptr %21, align 8
  %28 = call ptr %26(ptr noundef %27, ptr noundef @.str.79, i32 noundef 2)
  store ptr %28, ptr getelementptr inbounds (%struct._zend_phpdbg_globals, ptr @phpdbg_globals, i32 0, i32 26), align 8
  %29 = load ptr, ptr %21, align 8
  store ptr %29, ptr %18, align 8
  %30 = load ptr, ptr %18, align 8
  %31 = getelementptr inbounds %struct._zend_refcounted_h, ptr %30, i32 0, i32 1
  %32 = load i32, ptr %31, align 4
  store i32 %32, ptr %6, align 4
  %33 = load i32, ptr %6, align 4
  %34 = and i32 %33, 1008
  %35 = and i32 %34, 64
  %36 = icmp ne i32 %35, 0
  br i1 %36, label %60, label %37

37:                                               ; preds = %1
  %38 = load ptr, ptr %18, align 8
  store ptr %38, ptr %3, align 8
  %39 = load ptr, ptr %3, align 8
  %40 = load i32, ptr %39, align 4
  %41 = icmp ugt i32 %40, 0
  call void @llvm.assume(i1 %41)
  %42 = load ptr, ptr %3, align 8
  %43 = load i32, ptr %42, align 4
  %44 = add i32 %43, -1
  store i32 %44, ptr %42, align 4
  %45 = icmp eq i32 %44, 0
  br i1 %45, label %46, label %59

46:                                               ; preds = %37
  %47 = load ptr, ptr %18, align 8
  %48 = getelementptr inbounds %struct._zend_refcounted_h, ptr %47, i32 0, i32 1
  %49 = load i32, ptr %48, align 4
  store i32 %49, ptr %7, align 4
  %50 = load i32, ptr %7, align 4
  %51 = and i32 %50, 1008
  %52 = and i32 %51, 128
  %53 = icmp ne i32 %52, 0
  br i1 %53, label %54, label %56

54:                                               ; preds = %46
  %55 = load ptr, ptr %18, align 8
  call void @free(ptr noundef %55) #15
  br label %58

56:                                               ; preds = %46
  %57 = load ptr, ptr %18, align 8
  call void @_efree(ptr noundef %57) #15
  br label %58

58:                                               ; preds = %56, %54
  br label %59

59:                                               ; preds = %58, %37
  br label %60

60:                                               ; preds = %59, %1
  %61 = load ptr, ptr getelementptr inbounds (%struct._zend_executor_globals, ptr @executor_globals, i32 0, i32 50), align 8
  %62 = icmp ne ptr %61, null
  br i1 %62, label %63, label %64

63:                                               ; preds = %60
  store i32 -1, ptr %20, align 4
  br label %170

64:                                               ; preds = %60
  %65 = load ptr, ptr getelementptr inbounds (%struct._zend_phpdbg_globals, ptr @phpdbg_globals, i32 0, i32 24), align 8
  %66 = icmp ne ptr %65, null
  br i1 %66, label %67, label %69

67:                                               ; preds = %64
  %68 = load ptr, ptr getelementptr inbounds (%struct._zend_phpdbg_globals, ptr @phpdbg_globals, i32 0, i32 24), align 8
  call void @free(ptr noundef %68) #15
  br label %69

69:                                               ; preds = %67, %64
  %70 = call noalias ptr @strdup(ptr noundef @.str.79) #15
  store ptr %70, ptr getelementptr inbounds (%struct._zend_phpdbg_globals, ptr @phpdbg_globals, i32 0, i32 24), align 8
  store i64 19, ptr getelementptr inbounds (%struct._zend_phpdbg_globals, ptr @phpdbg_globals, i32 0, i32 25), align 8
  %71 = load ptr, ptr getelementptr inbounds (%struct._zend_phpdbg_globals, ptr @phpdbg_globals, i32 0, i32 26), align 8
  %72 = getelementptr inbounds %struct._zend_op_array, ptr %71, i32 0, i32 16
  %73 = load ptr, ptr %72, align 8
  %74 = call ptr (i64, ptr, ...) @zend_strpprintf(i64 noundef 0, ptr noundef @.str.80, i32 noundef 0, ptr noundef %73)
  store ptr %74, ptr %23, align 8
  %75 = load ptr, ptr %23, align 8
  store ptr getelementptr inbounds (%struct._zend_phpdbg_globals, ptr @phpdbg_globals, i32 0, i32 35), ptr %15, align 8
  store ptr %75, ptr %16, align 8
  %76 = load ptr, ptr %15, align 8
  %77 = load ptr, ptr %16, align 8
  %78 = call ptr @zend_hash_find(ptr noundef %76, ptr noundef %77) #15
  store ptr %78, ptr %17, align 8
  %79 = load ptr, ptr %17, align 8
  %80 = icmp ne ptr %79, null
  br i1 %80, label %81, label %87

81:                                               ; preds = %69
  %82 = load ptr, ptr %17, align 8
  %83 = load ptr, ptr %82, align 8
  %84 = icmp ne ptr %83, null
  call void @llvm.assume(i1 %84)
  %85 = load ptr, ptr %17, align 8
  %86 = load ptr, ptr %85, align 8
  store ptr %86, ptr %14, align 8
  br label %88

87:                                               ; preds = %69
  store ptr null, ptr %14, align 8
  br label %88

88:                                               ; preds = %87, %81
  %89 = load ptr, ptr %14, align 8
  store ptr %89, ptr %24, align 8
  %90 = load ptr, ptr getelementptr inbounds (%struct._zend_phpdbg_globals, ptr @phpdbg_globals, i32 0, i32 35, i32 9), align 8
  store ptr %90, ptr %25, align 8
  store ptr null, ptr getelementptr inbounds (%struct._zend_phpdbg_globals, ptr @phpdbg_globals, i32 0, i32 35, i32 9), align 8
  %91 = load ptr, ptr %23, align 8
  %92 = call i32 @zend_hash_del(ptr noundef getelementptr inbounds (%struct._zend_phpdbg_globals, ptr @phpdbg_globals, i32 0, i32 35), ptr noundef %91)
  %93 = load ptr, ptr %25, align 8
  store ptr %93, ptr getelementptr inbounds (%struct._zend_phpdbg_globals, ptr @phpdbg_globals, i32 0, i32 35, i32 9), align 8
  %94 = load ptr, ptr %24, align 8
  store ptr getelementptr inbounds (%struct._zend_phpdbg_globals, ptr @phpdbg_globals, i32 0, i32 35), ptr %8, align 8
  store ptr @.str.79, ptr %9, align 8
  store i64 19, ptr %10, align 8
  store ptr %94, ptr %11, align 8
  %95 = load ptr, ptr %11, align 8
  store ptr %95, ptr %12, align 8
  %96 = getelementptr inbounds %struct._zval_struct, ptr %12, i32 0, i32 1
  store i32 13, ptr %96, align 8
  %97 = load ptr, ptr %8, align 8
  %98 = load ptr, ptr %9, align 8
  %99 = load i64, ptr %10, align 8
  %100 = call ptr @zend_hash_str_update(ptr noundef %97, ptr noundef %98, i64 noundef %99, ptr noundef %12) #15
  store ptr %100, ptr %13, align 8
  %101 = load ptr, ptr %13, align 8
  %102 = load ptr, ptr %101, align 8
  %103 = icmp ne ptr %102, null
  call void @llvm.assume(i1 %103)
  %104 = load ptr, ptr %23, align 8
  store ptr %104, ptr %19, align 8
  %105 = load ptr, ptr %19, align 8
  %106 = getelementptr inbounds %struct._zend_refcounted_h, ptr %105, i32 0, i32 1
  %107 = load i32, ptr %106, align 4
  store i32 %107, ptr %4, align 4
  %108 = load i32, ptr %4, align 4
  %109 = and i32 %108, 1008
  %110 = and i32 %109, 64
  %111 = icmp ne i32 %110, 0
  br i1 %111, label %135, label %112

112:                                              ; preds = %88
  %113 = load ptr, ptr %19, align 8
  store ptr %113, ptr %2, align 8
  %114 = load ptr, ptr %2, align 8
  %115 = load i32, ptr %114, align 4
  %116 = icmp ugt i32 %115, 0
  call void @llvm.assume(i1 %116)
  %117 = load ptr, ptr %2, align 8
  %118 = load i32, ptr %117, align 4
  %119 = add i32 %118, -1
  store i32 %119, ptr %117, align 4
  %120 = icmp eq i32 %119, 0
  br i1 %120, label %121, label %134

121:                                              ; preds = %112
  %122 = load ptr, ptr %19, align 8
  %123 = getelementptr inbounds %struct._zend_refcounted_h, ptr %122, i32 0, i32 1
  %124 = load i32, ptr %123, align 4
  store i32 %124, ptr %5, align 4
  %125 = load i32, ptr %5, align 4
  %126 = and i32 %125, 1008
  %127 = and i32 %126, 128
  %128 = icmp ne i32 %127, 0
  br i1 %128, label %129, label %131

129:                                              ; preds = %121
  %130 = load ptr, ptr %19, align 8
  call void @free(ptr noundef %130) #15
  br label %133

131:                                              ; preds = %121
  %132 = load ptr, ptr %19, align 8
  call void @_efree(ptr noundef %132) #15
  br label %133

133:                                              ; preds = %131, %129
  br label %134

134:                                              ; preds = %133, %112
  br label %135

135:                                              ; preds = %134, %88
  store i32 1, ptr %22, align 4
  br label %136

136:                                              ; preds = %150, %135
  %137 = load i32, ptr %22, align 4
  %138 = load ptr, ptr %24, align 8
  %139 = getelementptr inbounds %struct.phpdbg_file_source, ptr %138, i32 0, i32 3
  %140 = load i32, ptr %139, align 8
  %141 = icmp ule i32 %137, %140
  br i1 %141, label %142, label %153

142:                                              ; preds = %136
  %143 = load ptr, ptr %24, align 8
  %144 = getelementptr inbounds %struct.phpdbg_file_source, ptr %143, i32 0, i32 4
  %145 = load i32, ptr %22, align 4
  %146 = sext i32 %145 to i64
  %147 = getelementptr inbounds [1 x i32], ptr %144, i64 0, i64 %146
  %148 = load i32, ptr %147, align 4
  %149 = sub i32 %148, 2
  store i32 %149, ptr %147, align 4
  br label %150

150:                                              ; preds = %142
  %151 = load i32, ptr %22, align 4
  %152 = add nsw i32 %151, 1
  store i32 %152, ptr %22, align 4
  br label %136

153:                                              ; preds = %136
  %154 = load ptr, ptr %24, align 8
  %155 = getelementptr inbounds %struct.phpdbg_file_source, ptr %154, i32 0, i32 1
  %156 = load i64, ptr %155, align 8
  %157 = sub i64 %156, 2
  store i64 %157, ptr %155, align 8
  %158 = load ptr, ptr %24, align 8
  %159 = getelementptr inbounds %struct.phpdbg_file_source, ptr %158, i32 0, i32 0
  %160 = load ptr, ptr %159, align 8
  %161 = load ptr, ptr %24, align 8
  %162 = getelementptr inbounds %struct.phpdbg_file_source, ptr %161, i32 0, i32 0
  %163 = load ptr, ptr %162, align 8
  %164 = getelementptr inbounds i8, ptr %163, i64 2
  %165 = load ptr, ptr %24, align 8
  %166 = getelementptr inbounds %struct.phpdbg_file_source, ptr %165, i32 0, i32 1
  %167 = load i64, ptr %166, align 8
  call void @llvm.memmove.p0.p0.i64(ptr align 1 %160, ptr align 1 %164, i64 %167, i1 false)
  %168 = load i32, ptr getelementptr inbounds (%struct._zend_phpdbg_globals, ptr @phpdbg_globals, i32 0, i32 39, i64 1), align 4
  %169 = call i32 (i32, i32, ptr, ...) @phpdbg_print(i32 noundef 2, i32 noundef %168, ptr noundef @.str.81)
  store i32 0, ptr %20, align 4
  br label %170

170:                                              ; preds = %153, %63
  %171 = load i32, ptr %20, align 4
  ret i32 %171
}