; Function Attrs: nounwind uwtable
define hidden noundef i32 @phpdbg_compile_stdin(ptr noundef %0) local_unnamed_addr #0 {
  %2 = alloca %struct._zval_struct, align 8
  %3 = load ptr, ptr @zend_compile_string, align 8
  %4 = tail call ptr %3(ptr noundef %0, ptr noundef nonnull @.str.79, i32 noundef 2) #24
  store ptr %4, ptr getelementptr inbounds (%struct._zend_phpdbg_globals, ptr @phpdbg_globals, i64 0, i32 26), align 8
  %5 = getelementptr inbounds i8, ptr %0, i64 4
  %6 = load i32, ptr %5, align 4
  %7 = and i32 %6, 64
  %.not = icmp eq i32 %7, 0
  br i1 %.not, label %8, label %17

8:                                                ; preds = %1
  %9 = load i32, ptr %0, align 4
  %10 = icmp ne i32 %9, 0
  tail call void @llvm.assume(i1 %10)
  %11 = add i32 %9, -1
  store i32 %11, ptr %0, align 4
  %12 = icmp eq i32 %11, 0
  br i1 %12, label %13, label %17

13:                                               ; preds = %8
  %14 = and i32 %6, 128
  %.not49 = icmp eq i32 %14, 0
  br i1 %.not49, label %16, label %15

15:                                               ; preds = %13
  tail call void @free(ptr noundef nonnull %0) #24
  br label %17

16:                                               ; preds = %13
  tail call void @_efree(ptr noundef nonnull %0) #24
  br label %17

17:                                               ; preds = %8, %16, %15, %1
  %18 = load ptr, ptr getelementptr inbounds (%struct._zend_executor_globals, ptr @executor_globals, i64 0, i32 50), align 8
  %.not50 = icmp eq ptr %18, null
  br i1 %.not50, label %19, label %66

19:                                               ; preds = %17
  %20 = load ptr, ptr getelementptr inbounds (%struct._zend_phpdbg_globals, ptr @phpdbg_globals, i64 0, i32 24), align 8
  %.not51 = icmp eq ptr %20, null
  br i1 %.not51, label %22, label %21

21:                                               ; preds = %19
  tail call void @free(ptr noundef nonnull %20) #24
  br label %22

22:                                               ; preds = %21, %19
  %23 = tail call noalias dereferenceable_or_null(20) ptr @strdup(ptr noundef nonnull @.str.79) #24
  store ptr %23, ptr getelementptr inbounds (%struct._zend_phpdbg_globals, ptr @phpdbg_globals, i64 0, i32 24), align 8
  store i64 19, ptr getelementptr inbounds (%struct._zend_phpdbg_globals, ptr @phpdbg_globals, i64 0, i32 25), align 8
  %24 = load ptr, ptr getelementptr inbounds (%struct._zend_phpdbg_globals, ptr @phpdbg_globals, i64 0, i32 26), align 8
  %25 = getelementptr inbounds i8, ptr %24, i64 88
  %26 = load ptr, ptr %25, align 8
  %27 = tail call ptr (i64, ptr, ...) @zend_strpprintf(i64 noundef 0, ptr noundef nonnull @.str.80, i32 noundef 0, ptr noundef %26) #24
  %28 = tail call ptr @zend_hash_find(ptr noundef nonnull getelementptr inbounds (%struct._zend_phpdbg_globals, ptr @phpdbg_globals, i64 0, i32 35), ptr noundef %27) #24
  %.not52 = icmp eq ptr %28, null
  br i1 %.not52, label %31, label %29

29:                                               ; preds = %22
  %30 = load ptr, ptr %28, align 8, !nonnull !6, !noundef !6
  br label %31

31:                                               ; preds = %22, %29
  %.0 = phi ptr [ %30, %29 ], [ null, %22 ]
  %32 = load ptr, ptr getelementptr inbounds (%struct._zend_phpdbg_globals, ptr @phpdbg_globals, i64 0, i32 35, i32 9), align 8
  store ptr null, ptr getelementptr inbounds (%struct._zend_phpdbg_globals, ptr @phpdbg_globals, i64 0, i32 35, i32 9), align 8
  %33 = tail call i32 @zend_hash_del(ptr noundef nonnull getelementptr inbounds (%struct._zend_phpdbg_globals, ptr @phpdbg_globals, i64 0, i32 35), ptr noundef %27) #24
  store ptr %32, ptr getelementptr inbounds (%struct._zend_phpdbg_globals, ptr @phpdbg_globals, i64 0, i32 35, i32 9), align 8
  store ptr %.0, ptr %2, align 8
  %34 = getelementptr inbounds i8, ptr %2, i64 8
  store i32 13, ptr %34, align 8
  %35 = call ptr @zend_hash_str_update(ptr noundef nonnull getelementptr inbounds (%struct._zend_phpdbg_globals, ptr @phpdbg_globals, i64 0, i32 35), ptr noundef nonnull @.str.79, i64 noundef 19, ptr noundef nonnull %2) #24
  %36 = load ptr, ptr %35, align 8
  %37 = icmp ne ptr %36, null
  call void @llvm.assume(i1 %37)
  %38 = getelementptr inbounds i8, ptr %27, i64 4
  %39 = load i32, ptr %38, align 4
  %40 = and i32 %39, 64
  %.not53 = icmp eq i32 %40, 0
  br i1 %.not53, label %41, label %50

41:                                               ; preds = %31
  %42 = load i32, ptr %27, align 4
  %43 = icmp ne i32 %42, 0
  call void @llvm.assume(i1 %43)
  %44 = add i32 %42, -1
  store i32 %44, ptr %27, align 4
  %45 = icmp eq i32 %44, 0
  br i1 %45, label %46, label %50

46:                                               ; preds = %41
  %47 = and i32 %39, 128
  %.not54 = icmp eq i32 %47, 0
  br i1 %.not54, label %49, label %48

48:                                               ; preds = %46
  call void @free(ptr noundef nonnull %27) #24
  br label %50

49:                                               ; preds = %46
  call void @_efree(ptr noundef nonnull %27) #24
  br label %50

50:                                               ; preds = %41, %49, %48, %31
  %51 = getelementptr inbounds i8, ptr %.0, i64 256
  %52 = load i32, ptr %51, align 8
  %.not5556 = icmp eq i32 %52, 0
  br i1 %.not5556, label %._crit_edge, label %.lr.ph

.lr.ph:                                           ; preds = %50
  %53 = getelementptr inbounds i8, ptr %.0, i64 260
  %54 = zext i32 %52 to i64
  br label %55

55:                                               ; preds = %.lr.ph, %55
  %indvars.iv = phi i64 [ 1, %.lr.ph ], [ %indvars.iv.next, %55 ]
  %56 = getelementptr inbounds [1 x i32], ptr %53, i64 0, i64 %indvars.iv
  %57 = load i32, ptr %56, align 4
  %58 = add i32 %57, -2
  store i32 %58, ptr %56, align 4
  %indvars.iv.next = add nuw nsw i64 %indvars.iv, 1
  %.not55.not = icmp ult i64 %indvars.iv, %54
  br i1 %.not55.not, label %55, label %._crit_edge

._crit_edge:                                      ; preds = %55, %50
  %59 = getelementptr inbounds i8, ptr %.0, i64 8
  %60 = load i64, ptr %59, align 8
  %61 = add i64 %60, -2
  store i64 %61, ptr %59, align 8
  %62 = load ptr, ptr %.0, align 8
  %63 = getelementptr inbounds i8, ptr %62, i64 2
  call void @llvm.memmove.p0.p0.i64(ptr align 1 %62, ptr nonnull align 1 %63, i64 %61, i1 false)
  %64 = load i32, ptr getelementptr inbounds (%struct._zend_phpdbg_globals, ptr @phpdbg_globals, i64 0, i32 39, i64 1), align 4
  %65 = call i32 (i32, i32, ptr, ...) @phpdbg_print(i32 noundef 2, i32 noundef %64, ptr noundef nonnull @.str.81) #24
  br label %66

66:                                               ; preds = %17, %._crit_edge
  %.045 = phi i32 [ 0, %._crit_edge ], [ -1, %17 ]
  ret i32 %.045
}